target datalayout = "e-m:e-p270:32:32-p271:32:32-p272:64:64-i64:64-i128:128-f80:128-n8:16:32:64-S128"
target triple = "x86_64-unknown-linux-gnu"

%"class.testing::ThrowingValue" = type { i32 }
%"class.std::initializer_list.89" = type { ptr, i64 }

; Function Attrs: mustprogress nounwind uwtable
define linkonce_odr dso_local void @_ZN7testing19exceptions_internal13TrackedObjectD2Ev(ptr noundef nonnull align 1 dereferenceable(1) %this) unnamed_addr #7 comdat align 2 personality ptr @__gxx_personality_v0 {
entry:
  %this.addr = alloca ptr, align 8
  store ptr %this, ptr %this.addr, align 8
  %this1 = load ptr, ptr %this.addr, align 8
  invoke void @_ZN7testing19exceptions_internal18ConstructorTracker16ObjectDestructedEPv(ptr noundef %this1)
          to label %invoke.cont unwind label %terminate.lpad

invoke.cont:                                      ; preds = %entry
  ret void

terminate.lpad:                                   ; preds = %entry
  %0 = landingpad { ptr, i32 }
          catch ptr null
  %1 = extractvalue { ptr, i32 } %0, 0
  call void @__clang_call_terminate(ptr %1) #18
  unreachable
}

; Function Attrs: mustprogress nounwind uwtable
define linkonce_odr dso_local void @_ZN7testing13ThrowingValueILNS_8TypeSpecE0EED2Ev(ptr noundef nonnull align 4 dereferenceable(4) %this) unnamed_addr #7 comdat align 2 {
entry:
  %this.addr = alloca ptr, align 8
  store ptr %this, ptr %this.addr, align 8
  %this1 = load ptr, ptr %this.addr, align 8
  call void @_ZN7testing19exceptions_internal13TrackedObjectD2Ev(ptr noundef nonnull align 1 dereferenceable(1) %this1) #3
  ret void
}

; Function Attrs: mustprogress nounwind uwtable
define linkonce_odr dso_local void @_ZNSt16initializer_listIN7testing13ThrowingValueILNS0_8TypeSpecE0EEEEC2Ev(ptr noundef nonnull align 8 dereferenceable(16) %this) unnamed_addr #7 comdat align 2 {
entry:
  %this.addr = alloca ptr, align 8
  store ptr %this, ptr %this.addr, align 8
  %this1 = load ptr, ptr %this.addr, align 8
  %_M_array = getelementptr inbounds %"class.std::initializer_list.89", ptr %this1, i32 0, i32 0
  store ptr null, ptr %_M_array, align 8
  %_M_len = getelementptr inbounds %"class.std::initializer_list.89", ptr %this1, i32 0, i32 1
  store i64 0, ptr %_M_len, align 8
  ret void
}

; Function Attrs: mustprogress uwtable
define internal void @_ZN4absl12_GLOBAL__N_150FixedArrayExceptionSafety_InitListConstructor_Test8TestBodyEv(ptr noundef nonnull align 8 dereferenceable(16) %this) unnamed_addr #4 align 2 personality ptr @__gxx_personality_v0 {
entry:
  %this.addr = alloca ptr, align 8
  %small_inlined = alloca i32, align 4
  %ref.tmp = alloca %"class.std::initializer_list.89", align 8
  %ref.tmp2 = alloca %"class.std::initializer_list.89", align 8
  %ref.tmp3 = alloca [2 x %"class.testing::ThrowingValue"], align 4
  %arrayinit.endOfInit = alloca ptr, align 8
  %exn.slot = alloca ptr, align 8
  %ehselector.slot = alloca i32, align 4
  %ref.tmp19 = alloca %"class.std::initializer_list.89", align 8
  %ref.tmp20 = alloca [5 x %"class.testing::ThrowingValue"], align 4
  %arrayinit.endOfInit22 = alloca ptr, align 8
  store ptr %this, ptr %this.addr, align 8
  store i32 3, ptr %small_inlined, align 4
  call void @_ZNSt16initializer_listIN7testing13ThrowingValueILNS0_8TypeSpecE0EEEEC2Ev(ptr noundef nonnull align 8 dereferenceable(16) %ref.tmp) #3
  call void @_ZN7testing16TestThrowingCtorIN4absl10FixedArrayINS_13ThrowingValueILNS_8TypeSpecE0EEELm3ESaIS5_EEEJSt16initializer_listIS5_EEEEvDpOT0_(ptr noundef nonnull align 8 dereferenceable(16) %ref.tmp)
  %arrayinit.begin = getelementptr inbounds [2 x %"class.testing::ThrowingValue"], ptr %ref.tmp3, i64 0, i64 0
  store ptr %arrayinit.begin, ptr %arrayinit.endOfInit, align 8
  invoke void @_ZN7testing13ThrowingValueILNS_8TypeSpecE0EEC2Ev(ptr noundef nonnull align 4 dereferenceable(4) %arrayinit.begin)
          to label %invoke.cont unwind label %lpad

invoke.cont:                                      ; preds = %entry
  %arrayinit.element = getelementptr inbounds %"class.testing::ThrowingValue", ptr %arrayinit.begin, i64 1
  store ptr %arrayinit.element, ptr %arrayinit.endOfInit, align 8
  invoke void @_ZN7testing13ThrowingValueILNS_8TypeSpecE0EEC2Ev(ptr noundef nonnull align 4 dereferenceable(4) %arrayinit.element)
          to label %invoke.cont4 unwind label %lpad

invoke.cont4:                                     ; preds = %invoke.cont
  %_M_array = getelementptr inbounds %"class.std::initializer_list.89", ptr %ref.tmp2, i32 0, i32 0
  %arraystart = getelementptr inbounds [2 x %"class.testing::ThrowingValue"], ptr %ref.tmp3, i64 0, i64 0
  store ptr %arraystart, ptr %_M_array, align 8
  %_M_len = getelementptr inbounds %"class.std::initializer_list.89", ptr %ref.tmp2, i32 0, i32 1
  store i64 2, ptr %_M_len, align 8
  invoke void @_ZN7testing16TestThrowingCtorIN4absl10FixedArrayINS_13ThrowingValueILNS_8TypeSpecE0EEELm3ESaIS5_EEEJSt16initializer_listIS5_EEEEvDpOT0_(ptr noundef nonnull align 8 dereferenceable(16) %ref.tmp2)
          to label %invoke.cont7 unwind label %lpad6

invoke.cont7:                                     ; preds = %invoke.cont4
  %array.begin = getelementptr inbounds [2 x %"class.testing::ThrowingValue"], ptr %ref.tmp3, i32 0, i32 0
  %0 = getelementptr inbounds %"class.testing::ThrowingValue", ptr %array.begin, i64 2
  br label %arraydestroy.body8

arraydestroy.body8:                               ; preds = %arraydestroy.body8, %invoke.cont7
  %arraydestroy.elementPast9 = phi ptr [ %0, %invoke.cont7 ], [ %arraydestroy.element10, %arraydestroy.body8 ]
  %arraydestroy.element10 = getelementptr inbounds %"class.testing::ThrowingValue", ptr %arraydestroy.elementPast9, i64 -1
  call void @_ZN7testing13ThrowingValueILNS_8TypeSpecE0EED2Ev(ptr noundef nonnull align 4 dereferenceable(4) %arraydestroy.element10) #3
  %arraydestroy.done11 = icmp eq ptr %arraydestroy.element10, %array.begin
  br i1 %arraydestroy.done11, label %arraydestroy.done12, label %arraydestroy.body8

arraydestroy.done12:                              ; preds = %arraydestroy.body8
  %arrayinit.begin21 = getelementptr inbounds [5 x %"class.testing::ThrowingValue"], ptr %ref.tmp20, i64 0, i64 0
  store ptr %arrayinit.begin21, ptr %arrayinit.endOfInit22, align 8
  invoke void @_ZN7testing13ThrowingValueILNS_8TypeSpecE0EEC2Ev(ptr noundef nonnull align 4 dereferenceable(4) %arrayinit.begin21)
          to label %invoke.cont24 unwind label %lpad23

invoke.cont24:                                    ; preds = %arraydestroy.done12
  %arrayinit.element25 = getelementptr inbounds %"class.testing::ThrowingValue", ptr %arrayinit.begin21, i64 1
  store ptr %arrayinit.element25, ptr %arrayinit.endOfInit22, align 8
  invoke void @_ZN7testing13ThrowingValueILNS_8TypeSpecE0EEC2Ev(ptr noundef nonnull align 4 dereferenceable(4) %arrayinit.element25)
          to label %invoke.cont26 unwind label %lpad23

invoke.cont26:                                    ; preds = %invoke.cont24
  %arrayinit.element27 = getelementptr inbounds %"class.testing::ThrowingValue", ptr %arrayinit.element25, i64 1
  store ptr %arrayinit.element27, ptr %arrayinit.endOfInit22, align 8
  invoke void @_ZN7testing13ThrowingValueILNS_8TypeSpecE0EEC2Ev(ptr noundef nonnull align 4 dereferenceable(4) %arrayinit.element27)
          to label %invoke.cont28 unwind label %lpad23

invoke.cont28:                                    ; preds = %invoke.cont26
  %arrayinit.element29 = getelementptr inbounds %"class.testing::ThrowingValue", ptr %arrayinit.element27, i64 1
  store ptr %arrayinit.element29, ptr %arrayinit.endOfInit22, align 8
  invoke void @_ZN7testing13ThrowingValueILNS_8TypeSpecE0EEC2Ev(ptr noundef nonnull align 4 dereferenceable(4) %arrayinit.element29)
          to label %invoke.cont30 unwind label %lpad23

invoke.cont30:                                    ; preds = %invoke.cont28
  %arrayinit.element31 = getelementptr inbounds %"class.testing::ThrowingValue", ptr %arrayinit.element29, i64 1
  store ptr %arrayinit.element31, ptr %arrayinit.endOfInit22, align 8
  invoke void @_ZN7testing13ThrowingValueILNS_8TypeSpecE0EEC2Ev(ptr noundef nonnull align 4 dereferenceable(4) %arrayinit.element31)
          to label %invoke.cont32 unwind label %lpad23

invoke.cont32:                                    ; preds = %invoke.cont30
  %_M_array39 = getelementptr inbounds %"class.std::initializer_list.89", ptr %ref.tmp19, i32 0, i32 0
  %arraystart40 = getelementptr inbounds [5 x %"class.testing::ThrowingValue"], ptr %ref.tmp20, i64 0, i64 0
  store ptr %arraystart40, ptr %_M_array39, align 8
  %_M_len41 = getelementptr inbounds %"class.std::initializer_list.89", ptr %ref.tmp19, i32 0, i32 1
  store i64 5, ptr %_M_len41, align 8
  invoke void @_ZN7testing16TestThrowingCtorIN4absl10FixedArrayINS_13ThrowingValueILNS_8TypeSpecE0EEELm3ESaIS5_EEEJSt16initializer_listIS5_EEEEvDpOT0_(ptr noundef nonnull align 8 dereferenceable(16) %ref.tmp19)
          to label %invoke.cont43 unwind label %lpad42

invoke.cont43:                                    ; preds = %invoke.cont32
  %array.begin44 = getelementptr inbounds [5 x %"class.testing::ThrowingValue"], ptr %ref.tmp20, i32 0, i32 0
  %1 = getelementptr inbounds %"class.testing::ThrowingValue", ptr %array.begin44, i64 5
  br label %arraydestroy.body45

arraydestroy.body45:                              ; preds = %arraydestroy.body45, %invoke.cont43
  %arraydestroy.elementPast46 = phi ptr [ %1, %invoke.cont43 ], [ %arraydestroy.element47, %arraydestroy.body45 ]
  %arraydestroy.element47 = getelementptr inbounds %"class.testing::ThrowingValue", ptr %arraydestroy.elementPast46, i64 -1
  call void @_ZN7testing13ThrowingValueILNS_8TypeSpecE0EED2Ev(ptr noundef nonnull align 4 dereferenceable(4) %arraydestroy.element47) #3
  %arraydestroy.done48 = icmp eq ptr %arraydestroy.element47, %array.begin44
  br i1 %arraydestroy.done48, label %arraydestroy.done49, label %arraydestroy.body45

arraydestroy.done49:                              ; preds = %arraydestroy.body45
  ret void

lpad:                                             ; preds = %invoke.cont, %entry
  %2 = landingpad { ptr, i32 }
          cleanup
  %3 = extractvalue { ptr, i32 } %2, 0
  store ptr %3, ptr %exn.slot, align 8
  %4 = extractvalue { ptr, i32 } %2, 1
  store i32 %4, ptr %ehselector.slot, align 4
  %5 = load ptr, ptr %arrayinit.endOfInit, align 8
  %arraydestroy.isempty = icmp eq ptr %arrayinit.begin, %5
  br i1 %arraydestroy.isempty, label %arraydestroy.done5, label %arraydestroy.body

arraydestroy.body:                                ; preds = %arraydestroy.body, %lpad
  %arraydestroy.elementPast = phi ptr [ %5, %lpad ], [ %arraydestroy.element, %arraydestroy.body ]
  %arraydestroy.element = getelementptr inbounds %"class.testing::ThrowingValue", ptr %arraydestroy.elementPast, i64 -1
  call void @_ZN7testing13ThrowingValueILNS_8TypeSpecE0EED2Ev(ptr noundef nonnull align 4 dereferenceable(4) %arraydestroy.element) #3
  %arraydestroy.done = icmp eq ptr %arraydestroy.element, %arrayinit.begin
  br i1 %arraydestroy.done, label %arraydestroy.done5, label %arraydestroy.body

arraydestroy.done5:                               ; preds = %arraydestroy.body, %lpad
  br label %eh.resume

lpad6:                                            ; preds = %invoke.cont4
  %6 = landingpad { ptr, i32 }
          cleanup
  %7 = extractvalue { ptr, i32 } %6, 0
  store ptr %7, ptr %exn.slot, align 8
  %8 = extractvalue { ptr, i32 } %6, 1
  store i32 %8, ptr %ehselector.slot, align 4
  %array.begin13 = getelementptr inbounds [2 x %"class.testing::ThrowingValue"], ptr %ref.tmp3, i32 0, i32 0
  %9 = getelementptr inbounds %"class.testing::ThrowingValue", ptr %array.begin13, i64 2
  br label %arraydestroy.body14

arraydestroy.body14:                              ; preds = %arraydestroy.body14, %lpad6
  %arraydestroy.elementPast15 = phi ptr [ %9, %lpad6 ], [ %arraydestroy.element16, %arraydestroy.body14 ]
  %arraydestroy.element16 = getelementptr inbounds %"class.testing::ThrowingValue", ptr %arraydestroy.elementPast15, i64 -1
  call void @_ZN7testing13ThrowingValueILNS_8TypeSpecE0EED2Ev(ptr noundef nonnull align 4 dereferenceable(4) %arraydestroy.element16) #3
  %arraydestroy.done17 = icmp eq ptr %arraydestroy.element16, %array.begin13
  br i1 %arraydestroy.done17, label %arraydestroy.done18, label %arraydestroy.body14

arraydestroy.done18:                              ; preds = %arraydestroy.body14
  br label %eh.resume

lpad23:                                           ; preds = %invoke.cont30, %invoke.cont28, %invoke.cont26, %invoke.cont24, %arraydestroy.done12
  %10 = landingpad { ptr, i32 }
          cleanup
  %11 = extractvalue { ptr, i32 } %10, 0
  store ptr %11, ptr %exn.slot, align 8
  %12 = extractvalue { ptr, i32 } %10, 1
  store i32 %12, ptr %ehselector.slot, align 4
  %13 = load ptr, ptr %arrayinit.endOfInit22, align 8
  %arraydestroy.isempty33 = icmp eq ptr %arrayinit.begin21, %13
  br i1 %arraydestroy.isempty33, label %arraydestroy.done38, label %arraydestroy.body34

arraydestroy.body34:                              ; preds = %arraydestroy.body34, %lpad23
  %arraydestroy.elementPast35 = phi ptr [ %13, %lpad23 ], [ %arraydestroy.element36, %arraydestroy.body34 ]
  %arraydestroy.element36 = getelementptr inbounds %"class.testing::ThrowingValue", ptr %arraydestroy.elementPast35, i64 -1
  call void @_ZN7testing13ThrowingValueILNS_8TypeSpecE0EED2Ev(ptr noundef nonnull align 4 dereferenceable(4) %arraydestroy.element36) #3
  %arraydestroy.done37 = icmp eq ptr %arraydestroy.element36, %arrayinit.begin21
  br i1 %arraydestroy.done37, label %arraydestroy.done38, label %arraydestroy.body34

arraydestroy.done38:                              ; preds = %arraydestroy.body34, %lpad23
  br label %eh.resume

lpad42:                                           ; preds = %invoke.cont32
  %14 = landingpad { ptr, i32 }
          cleanup
  %15 = extractvalue { ptr, i32 } %14, 0
  store ptr %15, ptr %exn.slot, align 8
  %16 = extractvalue { ptr, i32 } %14, 1
  store i32 %16, ptr %ehselector.slot, align 4
  %array.begin50 = getelementptr inbounds [5 x %"class.testing::ThrowingValue"], ptr %ref.tmp20, i32 0, i32 0
  %17 = getelementptr inbounds %"class.testing::ThrowingValue", ptr %array.begin50, i64 5
  br label %arraydestroy.body51

arraydestroy.body51:                              ; preds = %arraydestroy.body51, %lpad42
  %arraydestroy.elementPast52 = phi ptr [ %17, %lpad42 ], [ %arraydestroy.element53, %arraydestroy.body51 ]
  %arraydestroy.element53 = getelementptr inbounds %"class.testing::ThrowingValue", ptr %arraydestroy.elementPast52, i64 -1
  call void @_ZN7testing13ThrowingValueILNS_8TypeSpecE0EED2Ev(ptr noundef nonnull align 4 dereferenceable(4) %arraydestroy.element53) #3
  %arraydestroy.done54 = icmp eq ptr %arraydestroy.element53, %array.begin50
  br i1 %arraydestroy.done54, label %arraydestroy.done55, label %arraydestroy.body51

arraydestroy.done55:                              ; preds = %arraydestroy.body51
  br label %eh.resume

eh.resume:                                        ; preds = %arraydestroy.done55, %arraydestroy.done38, %arraydestroy.done18, %arraydestroy.done5
  %exn = load ptr, ptr %exn.slot, align 8
  %sel = load i32, ptr %ehselector.slot, align 4
  %lpad.val = insertvalue { ptr, i32 } poison, ptr %exn, 0
  %lpad.val56 = insertvalue { ptr, i32 } %lpad.val, i32 %sel, 1
  resume { ptr, i32 } %lpad.val56
}